CCS PCM C Compiler, Version 4.074, 22034               10-Jun-22 16:29

               Filename: LED_BUTTON.lst

               ROM used: 179 words (2%)
                         Largest free fragment is 2048
               RAM used: 9 (2%) at main() level
                         10 (3%) worst case
               Stack:    2 locations

*
0000:  MOVLW  00
0001:  MOVWF  0A
0002:  GOTO   07C
0003:  NOP
.................... #include <16f887.h> 
.................... //////// Standard Header file for the PIC16F887 device //////////////// 
.................... #device PIC16F887 
.................... #list 
....................  
.................... #device *=16 ADC=8 // Khai bao during con tro 16-bt  
.................... #FUSES NOWDT, HS, NOPUT, NOBROWNOUT,NOPROTECT, NOLVP  
.................... #use delay(clock = 8000000) // Khai bao su ðung Thach Anh 8 - Mhz 
*
0018:  MOVLW  23
0019:  MOVWF  04
001A:  BCF    03.7
001B:  MOVF   00,W
001C:  BTFSC  03.2
001D:  GOTO   02B
001E:  MOVLW  02
001F:  MOVWF  78
0020:  CLRF   77
0021:  DECFSZ 77,F
0022:  GOTO   021
0023:  DECFSZ 78,F
0024:  GOTO   020
0025:  MOVLW  97
0026:  MOVWF  77
0027:  DECFSZ 77,F
0028:  GOTO   027
0029:  DECFSZ 00,F
002A:  GOTO   01E
002B:  RETLW  00
.................... //#include<luutinh.h> 
.................... unsigned char x = 0; 
*
008F:  BCF    03.6
0090:  CLRF   20
.................... const char led7[] = {0x3f,0x06, 0x5b, 0x4f,0x66,0x6d, 0x7d, 0x07,0x7f,0x6f}; 
....................                   //  0    1     2     3    4    5     6     7    8    9    
.................... void Button2() 
.................... { 
.................... if(input(pin_d3)==0) 
*
002C:  BSF    03.5
002D:  BSF    08.3
002E:  BCF    03.5
002F:  BTFSC  08.3
0030:  GOTO   03A
.................... { 
.................... x=x+1; 
0031:  MOVLW  01
0032:  ADDWF  20,F
.................... delay_ms(300); 
0033:  MOVLW  02
0034:  MOVWF  22
0035:  MOVLW  96
0036:  MOVWF  23
0037:  CALL   018
0038:  DECFSZ 22,F
0039:  GOTO   035
.................... } 
.................... if(x==1) 
003A:  DECFSZ 20,W
003B:  GOTO   079
.................... { 
.................... output_b(~led7[1]); 
003C:  BSF    03.5
003D:  CLRF   06
003E:  MOVLW  F9
003F:  BCF    03.5
0040:  MOVWF  06
.................... delay_ms(300); 
0041:  MOVLW  02
0042:  MOVWF  22
0043:  MOVLW  96
0044:  MOVWF  23
0045:  CALL   018
0046:  DECFSZ 22,F
0047:  GOTO   043
.................... output_b(~led7[3]); 
0048:  BSF    03.5
0049:  CLRF   06
004A:  MOVLW  B0
004B:  BCF    03.5
004C:  MOVWF  06
.................... delay_ms(300); 
004D:  MOVLW  02
004E:  MOVWF  22
004F:  MOVLW  96
0050:  MOVWF  23
0051:  CALL   018
0052:  DECFSZ 22,F
0053:  GOTO   04F
.................... output_b(~led7[5]); 
0054:  BSF    03.5
0055:  CLRF   06
0056:  MOVLW  92
0057:  BCF    03.5
0058:  MOVWF  06
.................... delay_ms(300); 
0059:  MOVLW  02
005A:  MOVWF  22
005B:  MOVLW  96
005C:  MOVWF  23
005D:  CALL   018
005E:  DECFSZ 22,F
005F:  GOTO   05B
.................... output_b(~led7[7]); 
0060:  BSF    03.5
0061:  CLRF   06
0062:  MOVLW  F8
0063:  BCF    03.5
0064:  MOVWF  06
.................... delay_ms(300); 
0065:  MOVLW  02
0066:  MOVWF  22
0067:  MOVLW  96
0068:  MOVWF  23
0069:  CALL   018
006A:  DECFSZ 22,F
006B:  GOTO   067
.................... output_b(~led7[9]); 
006C:  BSF    03.5
006D:  CLRF   06
006E:  MOVLW  90
006F:  BCF    03.5
0070:  MOVWF  06
.................... delay_ms(300); 
0071:  MOVLW  02
0072:  MOVWF  22
0073:  MOVLW  96
0074:  MOVWF  23
0075:  CALL   018
0076:  DECFSZ 22,F
0077:  GOTO   073
.................... x=0; 
0078:  CLRF   20
.................... } 
....................  
.................... }  
0079:  BCF    0A.3
007A:  BCF    0A.4
007B:  GOTO   0B1 (RETURN)
.................... void Button1(){ 
.................... if(input(pin_d4)==0){ 
*
0004:  BSF    03.5
0005:  BSF    08.4
0006:  BCF    03.5
0007:  BTFSC  08.4
0008:  GOTO   015
....................  
.................... output_high(pin_c5); 
0009:  BCF    21.5
000A:  MOVF   21,W
000B:  BSF    03.5
000C:  MOVWF  07
000D:  BCF    03.5
000E:  BSF    07.5
....................  
.................... output_high(pin_c7);  
000F:  BCF    21.7
0010:  MOVF   21,W
0011:  BSF    03.5
0012:  MOVWF  07
0013:  BCF    03.5
0014:  BSF    07.7
.................... } 
.................... /*else{ 
....................  
.................... output_low(pin_c5); 
....................  
.................... output_low(pin_c7); 
....................  
.................... }*/ 
.................... } 
0015:  BCF    0A.3
0016:  BCF    0A.4
0017:  GOTO   0AB (RETURN)
.................... void main() 
.................... { 
*
007C:  CLRF   04
007D:  BCF    03.7
007E:  MOVLW  1F
007F:  ANDWF  03,F
0080:  BSF    03.5
0081:  BSF    03.6
0082:  MOVF   09,W
0083:  ANDLW  C0
0084:  MOVWF  09
0085:  BCF    03.6
0086:  BCF    1F.4
0087:  BCF    1F.5
0088:  MOVLW  00
0089:  BSF    03.6
008A:  MOVWF  08
008B:  BCF    03.5
008C:  CLRF   07
008D:  CLRF   08
008E:  CLRF   09
....................  
....................  
.................... set_tris_b(0x00);  // khai bao port b la output  
*
0093:  MOVLW  00
0094:  BSF    03.5
0095:  MOVWF  06
.................... set_tris_c(0x00);  // khai bao port c la output  
0096:  MOVWF  07
0097:  BCF    03.5
0098:  MOVWF  21
.................... set_tris_d(0xFF);  
0099:  MOVLW  FF
009A:  BSF    03.5
009B:  MOVWF  08
....................  
.................... output_b(0x00); 
009C:  CLRF   06
009D:  BCF    03.5
009E:  CLRF   06
.................... output_c(0x00); 
009F:  MOVLW  00
00A0:  MOVWF  21
00A1:  BSF    03.5
00A2:  CLRF   07
00A3:  BCF    03.5
00A4:  CLRF   07
.................... while(TRUE){ 
....................  
....................  
....................  
....................  
.................... if(input(pin_d4)==0) 
00A5:  BSF    03.5
00A6:  BSF    08.4
00A7:  BCF    03.5
00A8:  BTFSC  08.4
00A9:  GOTO   0AB
.................... { 
.................... Button1(); 
00AA:  GOTO   004
.................... } 
....................  
.................... if(input(pin_d3)==0)  
00AB:  BSF    03.5
00AC:  BSF    08.3
00AD:  BCF    03.5
00AE:  BTFSC  08.3
00AF:  GOTO   0B1
.................... { 
.................... Button2(); 
00B0:  GOTO   02C
.................... } 
....................  
....................  
.................... } 
00B1:  GOTO   0A5
.................... } 
....................  
....................  
....................  
....................  
....................  
....................  
00B2:  SLEEP

Configuration Fuses:
   Word  1: 2CF2   HS NOWDT NOPUT MCLR NOPROTECT NOCPD NOBROWNOUT IESO FCMEN NOLVP NODEBUG
   Word  2: 3FFF   NOWRT BORV40
